; Function Attrs: mustprogress uwtable
define noundef nonnull align 8 dereferenceable(8) ptr @_ZN6googlelsERSoRKNS_9Counter_tE(ptr noundef nonnull returned align 8 dereferenceable(8) %0, ptr noundef nonnull readnone align 1 captures(none) dereferenceable(1) %1) local_unnamed_addr #0 personality ptr @__gxx_personality_v0 {
  %3 = alloca %"class.google::LogMessageFatal", align 8
  %4 = tail call ptr @__dynamic_cast(ptr nonnull %0, ptr nonnull @_ZTISo, ptr nonnull @_ZTIN6google10LogMessage9LogStreamE, i64 0) #49
  %.not = icmp eq ptr %4, null
  br i1 %.not, label %.thread, label %5, !prof !164

5:                                                ; preds = %2
  %6 = getelementptr inbounds nuw i8, ptr %4, i64 80
  %7 = load ptr, ptr %6, align 8, !tbaa !21
  %.not15 = icmp eq ptr %4, %7
  br i1 %.not15, label %.critedge, label %.thread, !prof !165

.thread:                                          ; preds = %2, %5
  call void @llvm.lifetime.start.p0(i64 96, ptr nonnull %3) #49
  call void @_ZN6google15LogMessageFatalC1EPKci(ptr noundef nonnull align 8 dereferenceable(96) %3, ptr noundef nonnull @.str.19, i32 noundef 1980)
  %8 = getelementptr inbounds nuw i8, ptr %3, i64 8
  %9 = load ptr, ptr %8, align 8, !tbaa !91
  %10 = getelementptr inbounds nuw i8, ptr %9, i64 30008
  %11 = invoke noundef nonnull align 8 dereferenceable(8) ptr @_ZSt16__ostream_insertIcSt11char_traitsIcEERSt13basic_ostreamIT_T0_ES6_PKS3_l(ptr noundef nonnull align 8 dereferenceable(8) %10, ptr noundef nonnull @.str.24, i64 noundef 40)
          to label %_ZStlsISt11char_traitsIcEERSt13basic_ostreamIcT_ES5_PKc.exit unwind label %13

_ZStlsISt11char_traitsIcEERSt13basic_ostreamIcT_ES5_PKc.exit: ; preds = %.thread
  %12 = invoke noundef nonnull align 8 dereferenceable(8) ptr @_ZSt16__ostream_insertIcSt11char_traitsIcEERSt13basic_ostreamIT_T0_ES6_PKS3_l(ptr noundef nonnull align 8 dereferenceable(8) %10, ptr noundef nonnull @.str.25, i64 noundef 46)
          to label %_ZStlsISt11char_traitsIcEERSt13basic_ostreamIcT_ES5_PKc.exit14 unwind label %13

_ZStlsISt11char_traitsIcEERSt13basic_ostreamIcT_ES5_PKc.exit14: ; preds = %_ZStlsISt11char_traitsIcEERSt13basic_ostreamIcT_ES5_PKc.exit
  call void @_ZN6google15LogMessageFatalD1Ev(ptr noundef nonnull align 8 dereferenceable(96) %3) #52
  unreachable

13:                                               ; preds = %_ZStlsISt11char_traitsIcEERSt13basic_ostreamIcT_ES5_PKc.exit, %.thread
  %14 = landingpad { ptr, i32 }
          cleanup
  invoke void @_ZN6google15LogMessageFatalD1Ev(ptr noundef nonnull align 8 dereferenceable(96) %3) #52
          to label %18 unwind label %19

.critedge:                                        ; preds = %5
  %15 = getelementptr inbounds nuw i8, ptr %4, i64 72
  %16 = load i64, ptr %15, align 8, !tbaa !15
  %17 = tail call noundef nonnull align 8 dereferenceable(8) ptr @_ZNSo9_M_insertIlEERSoT_(ptr noundef nonnull align 8 dereferenceable(8) %0, i64 noundef %16)
  ret ptr %0

18:                                               ; preds = %13
  unreachable

19:                                               ; preds = %13
  %20 = landingpad { ptr, i32 }
          catch ptr null
  %21 = extractvalue { ptr, i32 } %20, 0
  call void @__clang_call_terminate(ptr %21) #50
  unreachable
}